0000000: 0061 736d                                 ; WASM_BINARY_MAGIC
0000004: 0100 0000                                 ; WASM_BINARY_VERSION
; section "Type" (1)
0000008: 01                                        ; section code
0000009: 00                                        ; section size (guess)
000000a: 04                                        ; num types
; type 0
000000b: 60                                        ; func
000000c: 01                                        ; num params
000000d: 7f                                        ; i32
000000e: 01                                        ; num results
000000f: 7f                                        ; i32
; type 1
0000010: 60                                        ; func
0000011: 00                                        ; num params
0000012: 01                                        ; num results
0000013: 7f                                        ; i32
; type 2
0000014: 60                                        ; func
0000015: 02                                        ; num params
0000016: 7f                                        ; i32
0000017: 7f                                        ; i32
0000018: 01                                        ; num results
0000019: 7f                                        ; i32
; type 3
000001a: 60                                        ; func
000001b: 03                                        ; num params
000001c: 7f                                        ; i32
000001d: 7f                                        ; i32
000001e: 7f                                        ; i32
000001f: 01                                        ; num results
0000020: 7f                                        ; i32
0000009: 17                                        ; FIXUP section size
; section "Import" (2)
0000021: 02                                        ; section code
0000022: 00                                        ; section size (guess)
0000023: 0c                                        ; num imports
; import header 0
0000024: 07                                        ; string length
0000025: 636f 6e73 6f6c 65                        console  ; import module name
000002c: 03                                        ; string length
000002d: 6c6f 67                                  log  ; import field name
0000030: 00                                        ; import kind
0000031: 00                                        ; import signature index
; import header 1
0000032: 07                                        ; string length
0000033: 636f 6e73 6f6c 65                        console  ; import module name
000003a: 03                                        ; string length
000003b: 6c6f 67                                  log  ; import field name
000003e: 00                                        ; import kind
000003f: 00                                        ; import signature index
; import header 2
0000040: 05                                        ; string length
0000041: 6172 7261 79                             array  ; import module name
0000046: 03                                        ; string length
0000047: 6e65 77                                  new  ; import field name
000004a: 00                                        ; import kind
000004b: 01                                        ; import signature index
; import header 3
000004c: 05                                        ; string length
000004d: 6172 7261 79                             array  ; import module name
0000052: 04                                        ; string length
0000053: 7075 7368                                push  ; import field name
0000057: 00                                        ; import kind
0000058: 02                                        ; import signature index
; import header 4
0000059: 05                                        ; string length
000005a: 6172 7261 79                             array  ; import module name
000005f: 03                                        ; string length
0000060: 6765 74                                  get  ; import field name
0000063: 00                                        ; import kind
0000064: 02                                        ; import signature index
; import header 5
0000065: 05                                        ; string length
0000066: 6172 7261 79                             array  ; import module name
000006b: 06                                        ; string length
000006c: 6c65 6e67 7468                           length  ; import field name
0000072: 00                                        ; import kind
0000073: 00                                        ; import signature index
; import header 6
0000074: 06                                        ; string length
0000075: 7374 7269 6e67                           string  ; import module name
000007b: 07                                        ; string length
000007c: 7265 706c 6163 65                        replace  ; import field name
0000083: 00                                        ; import kind
0000084: 03                                        ; import signature index
; import header 7
0000085: 06                                        ; string length
0000086: 7374 7269 6e67                           string  ; import module name
000008c: 03                                        ; string length
000008d: 6164 64                                  add  ; import field name
0000090: 00                                        ; import kind
0000091: 02                                        ; import signature index
; import header 8
0000092: 06                                        ; string length
0000093: 7374 7269 6e67                           string  ; import module name
0000099: 06                                        ; string length
000009a: 6c65 6e67 7468                           length  ; import field name
00000a0: 00                                        ; import kind
00000a1: 00                                        ; import signature index
; import header 9
00000a2: 06                                        ; string length
00000a3: 7374 7269 6e67                           string  ; import module name
00000a9: 00                                        ; string length
00000aa: 00                                        ; import kind
00000ab: 02                                        ; import signature index
; import header 10
00000ac: 05                                        ; string length
00000ad: 6172 7261 79                             array  ; import module name
00000b2: 03                                        ; string length
00000b3: 7365 74                                  set  ; import field name
00000b6: 00                                        ; import kind
00000b7: 03                                        ; import signature index
; import header 11
00000b8: 03                                        ; string length
00000b9: 656e 76                                  env  ; import module name
00000bc: 0a                                        ; string length
00000bd: 6279 7465 6368 756e 6b73                 bytechunks  ; import field name
00000c7: 02                                        ; import kind
00000c8: 00                                        ; limits: flags
00000c9: 01                                        ; limits: initial
; move data: [23, ca) -> [24, cb)
0000022: a701                                      ; FIXUP section size
; section "Function" (3)
00000cb: 03                                        ; section code
00000cc: 00                                        ; section size (guess)
00000cd: 03                                        ; num functions
00000ce: 01                                        ; function 0 signature index
00000cf: 01                                        ; function 1 signature index
00000d0: 01                                        ; function 2 signature index
00000cc: 04                                        ; FIXUP section size
; section "Export" (7)
00000d1: 07                                        ; section code
00000d2: 00                                        ; section size (guess)
00000d3: 03                                        ; num exports
00000d4: 0b                                        ; string length
00000d5: 7465 7374 4c69 7374 4164 64              testListAdd  ; export name
00000e0: 00                                        ; export kind
00000e1: 0b                                        ; export func index
00000e2: 09                                        ; string length
00000e3: 6172 7261 794c 6f6f 70                   arrayLoop  ; export name
00000ec: 00                                        ; export kind
00000ed: 0c                                        ; export func index
00000ee: 0b                                        ; string length
00000ef: 6372 6561 7465 4172 7261 79              createArray  ; export name
00000fa: 00                                        ; export kind
00000fb: 0d                                        ; export func index
00000d2: 29                                        ; FIXUP section size
; section "Code" (10)
00000fc: 0a                                        ; section code
00000fd: 00                                        ; section size (guess)
00000fe: 03                                        ; num functions
; function body 0
00000ff: 00                                        ; func body size (guess)
0000100: 01                                        ; local decl count
0000101: 01                                        ; local type count
0000102: 7f                                        ; i32
0000103: 10                                        ; call
0000104: 02                                        ; function index
0000105: 21                                        ; local.set
0000106: 00                                        ; local index
0000107: 20                                        ; local.get
0000108: 00                                        ; local index
0000109: 41                                        ; i32.const
000010a: 01                                        ; i32 literal
000010b: 10                                        ; call
000010c: 03                                        ; function index
000010d: 20                                        ; local.get
000010e: 00                                        ; local index
000010f: 41                                        ; i32.const
0000110: 02                                        ; i32 literal
0000111: 10                                        ; call
0000112: 04                                        ; function index
0000113: 10                                        ; call
0000114: 01                                        ; function index
0000115: 41                                        ; i32.const
0000116: 00                                        ; i32 literal
0000117: 0f                                        ; return
0000118: 0b                                        ; end
00000ff: 19                                        ; FIXUP func body size
; function body 1
0000119: 00                                        ; func body size (guess)
000011a: 01                                        ; local decl count
000011b: 02                                        ; local type count
000011c: 7f                                        ; i32
000011d: 10                                        ; call
000011e: 02                                        ; function index
000011f: 41                                        ; i32.const
0000120: 01                                        ; i32 literal
0000121: 10                                        ; call
0000122: 03                                        ; function index
0000123: 41                                        ; i32.const
0000124: 02                                        ; i32 literal
0000125: 10                                        ; call
0000126: 03                                        ; function index
0000127: 41                                        ; i32.const
0000128: 03                                        ; i32 literal
0000129: 10                                        ; call
000012a: 03                                        ; function index
000012b: 41                                        ; i32.const
000012c: 04                                        ; i32 literal
000012d: 10                                        ; call
000012e: 03                                        ; function index
000012f: 41                                        ; i32.const
0000130: 05                                        ; i32 literal
0000131: 10                                        ; call
0000132: 03                                        ; function index
0000133: 41                                        ; i32.const
0000134: 06                                        ; i32 literal
0000135: 10                                        ; call
0000136: 03                                        ; function index
0000137: 41                                        ; i32.const
0000138: 07                                        ; i32 literal
0000139: 10                                        ; call
000013a: 03                                        ; function index
000013b: 41                                        ; i32.const
000013c: d800                                      ; i32 literal
000013e: 10                                        ; call
000013f: 03                                        ; function index
0000140: 21                                        ; local.set
0000141: 00                                        ; local index
0000142: 41                                        ; i32.const
0000143: 00                                        ; i32 literal
0000144: 21                                        ; local.set
0000145: 01                                        ; local index
0000146: 02                                        ; block
0000147: 40                                        ; void
0000148: 03                                        ; loop
0000149: 40                                        ; void
000014a: 20                                        ; local.get
000014b: 01                                        ; local index
000014c: 20                                        ; local.get
000014d: 00                                        ; local index
000014e: 10                                        ; call
000014f: 05                                        ; function index
0000150: 4a                                        ; i32.gt_s
0000151: 0d                                        ; br_if
0000152: 01                                        ; break depth
0000153: 20                                        ; local.get
0000154: 01                                        ; local index
0000155: 41                                        ; i32.const
0000156: 01                                        ; i32 literal
0000157: 6a                                        ; i32.add
0000158: 21                                        ; local.set
0000159: 01                                        ; local index
000015a: 20                                        ; local.get
000015b: 00                                        ; local index
000015c: 20                                        ; local.get
000015d: 01                                        ; local index
000015e: 10                                        ; call
000015f: 04                                        ; function index
0000160: 10                                        ; call
0000161: 01                                        ; function index
0000162: 0c                                        ; br
0000163: 00                                        ; break depth
0000164: 0b                                        ; end
0000165: 0b                                        ; end
0000166: 41                                        ; i32.const
0000167: 00                                        ; i32 literal
0000168: 0f                                        ; return
0000169: 0b                                        ; end
0000119: 50                                        ; FIXUP func body size
; function body 2
000016a: 00                                        ; func body size (guess)
000016b: 01                                        ; local decl count
000016c: 02                                        ; local type count
000016d: 7f                                        ; i32
000016e: 10                                        ; call
000016f: 02                                        ; function index
0000170: 41                                        ; i32.const
0000171: 05                                        ; i32 literal
0000172: 10                                        ; call
0000173: 03                                        ; function index
0000174: 41                                        ; i32.const
0000175: 0c                                        ; i32 literal
0000176: 10                                        ; call
0000177: 03                                        ; function index
0000178: 41                                        ; i32.const
0000179: 12                                        ; i32 literal
000017a: 10                                        ; call
000017b: 03                                        ; function index
000017c: 41                                        ; i32.const
000017d: 18                                        ; i32 literal
000017e: 10                                        ; call
000017f: 03                                        ; function index
0000180: 41                                        ; i32.const
0000181: 1f                                        ; i32 literal
0000182: 10                                        ; call
0000183: 03                                        ; function index
0000184: 21                                        ; local.set
0000185: 00                                        ; local index
0000186: 20                                        ; local.get
0000187: 00                                        ; local index
0000188: 41                                        ; i32.const
0000189: 00                                        ; i32 literal
000018a: 10                                        ; call
000018b: 04                                        ; function index
000018c: 21                                        ; local.set
000018d: 01                                        ; local index
000018e: 20                                        ; local.get
000018f: 00                                        ; local index
0000190: 10                                        ; call
0000191: 00                                        ; function index
0000192: 20                                        ; local.get
0000193: 00                                        ; local index
0000194: 41                                        ; i32.const
0000195: 03                                        ; i32 literal
0000196: 10                                        ; call
0000197: 04                                        ; function index
0000198: 10                                        ; call
0000199: 01                                        ; function index
000019a: 20                                        ; local.get
000019b: 00                                        ; local index
000019c: 41                                        ; i32.const
000019d: 04                                        ; i32 literal
000019e: 41                                        ; i32.const
000019f: 2d                                        ; i32 literal
00001a0: 10                                        ; call
00001a1: 0a                                        ; function index
00001a2: 20                                        ; local.get
00001a3: 00                                        ; local index
00001a4: 10                                        ; call
00001a5: 00                                        ; function index
00001a6: 20                                        ; local.get
00001a7: 00                                        ; local index
00001a8: 41                                        ; i32.const
00001a9: 04                                        ; i32 literal
00001aa: 10                                        ; call
00001ab: 04                                        ; function index
00001ac: 10                                        ; call
00001ad: 01                                        ; function index
00001ae: 41                                        ; i32.const
00001af: 00                                        ; i32 literal
00001b0: 0f                                        ; return
00001b1: 0b                                        ; end
000016a: 47                                        ; FIXUP func body size
; move data: [fe, 1b2) -> [ff, 1b3)
00000fd: b401                                      ; FIXUP section size
; section "Data" (11)
00001b3: 0b                                        ; section code
00001b4: 00                                        ; section size (guess)
00001b5: 07                                        ; num data segments
; data segment header 0
00001b6: 00                                      
00001b7: 41                                        ; i32.const
00001b8: 01                                        ; i32 literal
00001b9: 0b                                        ; end
00001ba: 04                                        ; data segment size
; data segment data 0
00001bb: 7965 7300                                 ; data segment data
; data segment header 1
00001bf: 00                                      
00001c0: 41                                        ; i32.const
00001c1: 05                                        ; i32 literal
00001c2: 0b                                        ; end
00001c3: 07                                        ; data segment size
; data segment data 1
00001c4: 3333 3333 3333 00                         ; data segment data
; data segment header 2
00001cb: 00                                      
00001cc: 41                                        ; i32.const
00001cd: 0c                                        ; i32 literal
00001ce: 0b                                        ; end
00001cf: 06                                        ; data segment size
; data segment data 2
00001d0: 4141 4141 4100                            ; data segment data
; data segment header 3
00001d6: 00                                      
00001d7: 41                                        ; i32.const
00001d8: 12                                        ; i32 literal
00001d9: 0b                                        ; end
00001da: 06                                        ; data segment size
; data segment data 3
00001db: 5858 5858 5800                            ; data segment data
; data segment header 4
00001e1: 00                                      
00001e2: 41                                        ; i32.const
00001e3: 18                                        ; i32 literal
00001e4: 0b                                        ; end
00001e5: 07                                        ; data segment size
; data segment data 4
00001e6: 3533 3435 3335 00                         ; data segment data
; data segment header 5
00001ed: 00                                      
00001ee: 41                                        ; i32.const
00001ef: 1f                                        ; i32 literal
00001f0: 0b                                        ; end
00001f1: 0e                                        ; data segment size
; data segment data 5
00001f2: 6173 6461 6a6b 6673 6468 6a6b 6600        ; data segment data
; data segment header 6
0000200: 00                                      
0000201: 41                                        ; i32.const
0000202: 2d                                        ; i32 literal
0000203: 0b                                        ; end
0000204: 0c                                        ; data segment size
; data segment data 6
0000205: 4865 6c6c 6f20 776f 726c 6400             ; data segment data
00001b4: 5c                                        ; FIXUP section size
;; dump
0000000: 0061 736d 0100 0000 0117 0460 017f 017f 
0000010: 6000 017f 6002 7f7f 017f 6003 7f7f 7f01 
0000020: 7f02 a701 0c07 636f 6e73 6f6c 6503 6c6f 
0000030: 6700 0007 636f 6e73 6f6c 6503 6c6f 6700 
0000040: 0005 6172 7261 7903 6e65 7700 0105 6172 
0000050: 7261 7904 7075 7368 0002 0561 7272 6179 
0000060: 0367 6574 0002 0561 7272 6179 066c 656e 
0000070: 6774 6800 0006 7374 7269 6e67 0772 6570 
0000080: 6c61 6365 0003 0673 7472 696e 6703 6164 
0000090: 6400 0206 7374 7269 6e67 066c 656e 6774 
00000a0: 6800 0006 7374 7269 6e67 0000 0205 6172 
00000b0: 7261 7903 7365 7400 0303 656e 760a 6279 
00000c0: 7465 6368 756e 6b73 0200 0103 0403 0101 
00000d0: 0107 2903 0b74 6573 744c 6973 7441 6464 
00000e0: 000b 0961 7272 6179 4c6f 6f70 000c 0b63 
00000f0: 7265 6174 6541 7272 6179 000d 0ab4 0103 
0000100: 1901 017f 1002 2100 2000 4101 1003 2000 
0000110: 4102 1004 1001 4100 0f0b 5001 027f 1002 
0000120: 4101 1003 4102 1003 4103 1003 4104 1003 
0000130: 4105 1003 4106 1003 4107 1003 41d8 0010 
0000140: 0321 0041 0021 0102 4003 4020 0120 0010 
0000150: 054a 0d01 2001 4101 6a21 0120 0020 0110 
0000160: 0410 010c 000b 0b41 000f 0b47 0102 7f10 
0000170: 0241 0510 0341 0c10 0341 1210 0341 1810 
0000180: 0341 1f10 0321 0020 0041 0010 0421 0120 
0000190: 0010 0020 0041 0310 0410 0120 0041 0441 
00001a0: 2d10 0a20 0010 0020 0041 0410 0410 0141 
00001b0: 000f 0b0b 5c07 0041 010b 0479 6573 0000 
00001c0: 4105 0b07 3333 3333 3333 0000 410c 0b06 
00001d0: 4141 4141 4100 0041 120b 0658 5858 5858 
00001e0: 0000 4118 0b07 3533 3435 3335 0000 411f 
00001f0: 0b0e 6173 6461 6a6b 6673 6468 6a6b 6600 
0000200: 0041 2d0b 0c48 656c 6c6f 2077 6f72 6c64 
0000210: 00                                      
