0000000: 0061 736d                                 ; WASM_BINARY_MAGIC
0000004: 0100 0000                                 ; WASM_BINARY_VERSION
; section "Type" (1)
0000008: 01                                        ; section code
0000009: 00                                        ; section size (guess)
000000a: 03                                        ; num types
; type 0
000000b: 60                                        ; func
000000c: 01                                        ; num params
000000d: 7f                                        ; i32
000000e: 01                                        ; num results
000000f: 7f                                        ; i32
; type 1
0000010: 60                                        ; func
0000011: 00                                        ; num params
0000012: 01                                        ; num results
0000013: 7f                                        ; i32
; type 2
0000014: 60                                        ; func
0000015: 02                                        ; num params
0000016: 7f                                        ; i32
0000017: 7f                                        ; i32
0000018: 01                                        ; num results
0000019: 7f                                        ; i32
0000009: 10                                        ; FIXUP section size
; section "Import" (2)
000001a: 02                                        ; section code
000001b: 00                                        ; section size (guess)
000001c: 04                                        ; num imports
; import header 0
000001d: 07                                        ; string length
000001e: 636f 6e73 6f6c 65                        console  ; import module name
0000025: 03                                        ; string length
0000026: 6c6f 67                                  log  ; import field name
0000029: 00                                        ; import kind
000002a: 00                                        ; import signature index
; import header 1
000002b: 05                                        ; string length
000002c: 6172 7261 79                             array  ; import module name
0000031: 03                                        ; string length
0000032: 6e65 77                                  new  ; import field name
0000035: 00                                        ; import kind
0000036: 01                                        ; import signature index
; import header 2
0000037: 05                                        ; string length
0000038: 6172 7261 79                             array  ; import module name
000003d: 04                                        ; string length
000003e: 7075 7368                                push  ; import field name
0000042: 00                                        ; import kind
0000043: 02                                        ; import signature index
; import header 3
0000044: 03                                        ; string length
0000045: 656e 76                                  env  ; import module name
0000048: 0a                                        ; string length
0000049: 6279 7465 6368 756e 6b73                 bytechunks  ; import field name
0000053: 02                                        ; import kind
0000054: 00                                        ; limits: flags
0000055: 01                                        ; limits: initial
000001b: 3a                                        ; FIXUP section size
; section "Function" (3)
0000056: 03                                        ; section code
0000057: 00                                        ; section size (guess)
0000058: 01                                        ; num functions
0000059: 01                                        ; function 0 signature index
0000057: 02                                        ; FIXUP section size
; section "Export" (7)
000005a: 07                                        ; section code
000005b: 00                                        ; section size (guess)
000005c: 01                                        ; num exports
000005d: 0b                                        ; string length
000005e: 6372 6561 7465 4172 7261 79              createArray  ; export name
0000069: 00                                        ; export kind
000006a: 03                                        ; export func index
000005b: 0f                                        ; FIXUP section size
; section "Code" (10)
000006b: 0a                                        ; section code
000006c: 00                                        ; section size (guess)
000006d: 01                                        ; num functions
; function body 0
000006e: 00                                        ; func body size (guess)
000006f: 01                                        ; local decl count
0000070: 01                                        ; local type count
0000071: 7f                                        ; i32
0000072: 10                                        ; call
0000073: 01                                        ; function index
0000074: 41                                        ; i32.const
0000075: 01                                        ; i32 literal
0000076: 10                                        ; call
0000077: 02                                        ; function index
0000078: 41                                        ; i32.const
0000079: 08                                        ; i32 literal
000007a: 10                                        ; call
000007b: 02                                        ; function index
000007c: 41                                        ; i32.const
000007d: 0e                                        ; i32 literal
000007e: 10                                        ; call
000007f: 02                                        ; function index
0000080: 41                                        ; i32.const
0000081: 14                                        ; i32 literal
0000082: 10                                        ; call
0000083: 02                                        ; function index
0000084: 41                                        ; i32.const
0000085: 1b                                        ; i32 literal
0000086: 10                                        ; call
0000087: 02                                        ; function index
0000088: 21                                        ; local.set
0000089: 00                                        ; local index
000008a: 20                                        ; local.get
000008b: 00                                        ; local index
000008c: 10                                        ; call
000008d: 00                                        ; function index
000008e: 41                                        ; i32.const
000008f: 00                                        ; i32 literal
0000090: 0f                                        ; return
0000091: 0b                                        ; end
000006e: 23                                        ; FIXUP func body size
000006c: 25                                        ; FIXUP section size
; section "Data" (11)
0000092: 0b                                        ; section code
0000093: 00                                        ; section size (guess)
0000094: 05                                        ; num data segments
; data segment header 0
0000095: 00                                      
0000096: 41                                        ; i32.const
0000097: 01                                        ; i32 literal
0000098: 0b                                        ; end
0000099: 07                                        ; data segment size
; data segment data 0
000009a: 3333 3333 3333 00                         ; data segment data
; data segment header 1
00000a1: 00                                      
00000a2: 41                                        ; i32.const
00000a3: 08                                        ; i32 literal
00000a4: 0b                                        ; end
00000a5: 06                                        ; data segment size
; data segment data 1
00000a6: 4141 4141 4100                            ; data segment data
; data segment header 2
00000ac: 00                                      
00000ad: 41                                        ; i32.const
00000ae: 0e                                        ; i32 literal
00000af: 0b                                        ; end
00000b0: 06                                        ; data segment size
; data segment data 2
00000b1: 5858 5858 5800                            ; data segment data
; data segment header 3
00000b7: 00                                      
00000b8: 41                                        ; i32.const
00000b9: 14                                        ; i32 literal
00000ba: 0b                                        ; end
00000bb: 07                                        ; data segment size
; data segment data 3
00000bc: 3533 3435 3335 00                         ; data segment data
; data segment header 4
00000c3: 00                                      
00000c4: 41                                        ; i32.const
00000c5: 1b                                        ; i32 literal
00000c6: 0b                                        ; end
00000c7: 0e                                        ; data segment size
; data segment data 4
00000c8: 6173 6461 6a6b 6673 6468 6a6b 6600        ; data segment data
0000093: 42                                        ; FIXUP section size
;; dump
0000000: 0061 736d 0100 0000 0110 0360 017f 017f 
0000010: 6000 017f 6002 7f7f 017f 023a 0407 636f 
0000020: 6e73 6f6c 6503 6c6f 6700 0005 6172 7261 
0000030: 7903 6e65 7700 0105 6172 7261 7904 7075 
0000040: 7368 0002 0365 6e76 0a62 7974 6563 6875 
0000050: 6e6b 7302 0001 0302 0101 070f 010b 6372 
0000060: 6561 7465 4172 7261 7900 030a 2501 2301 
0000070: 017f 1001 4101 1002 4108 1002 410e 1002 
0000080: 4114 1002 411b 1002 2100 2000 1000 4100 
0000090: 0f0b 0b42 0500 4101 0b07 3333 3333 3333 
00000a0: 0000 4108 0b06 4141 4141 4100 0041 0e0b 
00000b0: 0658 5858 5858 0000 4114 0b07 3533 3435 
00000c0: 3335 0000 411b 0b0e 6173 6461 6a6b 6673 
00000d0: 6468 6a6b 6600                          
