0000000: 0061 736d                                 ; WASM_BINARY_MAGIC
0000004: 0100 0000                                 ; WASM_BINARY_VERSION
; section "Type" (1)
0000008: 01                                        ; section code
0000009: 00                                        ; section size (guess)
000000a: 02                                        ; num types
; type 0
000000b: 60                                        ; func
000000c: 00                                        ; num params
000000d: 01                                        ; num results
000000e: 7c                                        ; f64
; type 1
000000f: 60                                        ; func
0000010: 00                                        ; num params
0000011: 01                                        ; num results
0000012: 7f                                        ; i32
0000009: 09                                        ; FIXUP section size
; section "Import" (2)
0000013: 02                                        ; section code
0000014: 00                                        ; section size (guess)
0000015: 02                                        ; num imports
; import header 0
0000016: 04                                        ; string length
0000017: 4d61 7468                                Math  ; import module name
000001b: 06                                        ; string length
000001c: 7261 6e64 6f6d                           random  ; import field name
0000022: 00                                        ; import kind
0000023: 00                                        ; import signature index
; import header 1
0000024: 03                                        ; string length
0000025: 656e 76                                  env  ; import module name
0000028: 0a                                        ; string length
0000029: 6279 7465 6368 756e 6b73                 bytechunks  ; import field name
0000033: 02                                        ; import kind
0000034: 00                                        ; limits: flags
0000035: 01                                        ; limits: initial
0000014: 21                                        ; FIXUP section size
; section "Function" (3)
0000036: 03                                        ; section code
0000037: 00                                        ; section size (guess)
0000038: 01                                        ; num functions
0000039: 01                                        ; function 0 signature index
0000037: 02                                        ; FIXUP section size
; section "Export" (7)
000003a: 07                                        ; section code
000003b: 00                                        ; section size (guess)
000003c: 01                                        ; num exports
000003d: 07                                        ; string length
000003e: 6c6f 6769 6361 6c                        logical  ; export name
0000045: 00                                        ; export kind
0000046: 01                                        ; export func index
000003b: 0b                                        ; FIXUP section size
; section "Code" (10)
0000047: 0a                                        ; section code
0000048: 00                                        ; section size (guess)
0000049: 01                                        ; num functions
; function body 0
000004a: 00                                        ; func body size (guess)
000004b: 01                                        ; local decl count
000004c: 01                                        ; local type count
000004d: 7f                                        ; i32
000004e: 10                                        ; call
000004f: 00                                        ; function index
0000050: 44                                        ; f64.const
0000051: 0000 0000 0000 e03f                       ; f64 literal
0000059: 66                                        ; f64.ge
000005a: 21                                        ; local.set
000005b: 00                                        ; local index
000005c: 20                                        ; local.get
000005d: 00                                        ; local index
000005e: 04                                        ; if
000005f: 40                                        ; void
0000060: 41                                        ; i32.const
0000061: 01                                        ; i32 literal
0000062: 0f                                        ; return
0000063: 05                                        ; else
0000064: 41                                        ; i32.const
0000065: 00                                        ; i32 literal
0000066: 41                                        ; i32.const
0000067: e400                                      ; i32 literal
0000069: 6b                                        ; i32.sub
000006a: 0f                                        ; return
000006b: 0b                                        ; end
000006c: 41                                        ; i32.const
000006d: 00                                        ; i32 literal
000006e: 0f                                        ; return
000006f: 0b                                        ; end
000004a: 25                                        ; FIXUP func body size
0000048: 27                                        ; FIXUP section size
;; dump
0000000: 0061 736d 0100 0000 0109 0260 0001 7c60 
0000010: 0001 7f02 2102 044d 6174 6806 7261 6e64 
0000020: 6f6d 0000 0365 6e76 0a62 7974 6563 6875 
0000030: 6e6b 7302 0001 0302 0101 070b 0107 6c6f 
0000040: 6769 6361 6c00 010a 2701 2501 017f 1000 
0000050: 4400 0000 0000 00e0 3f66 2100 2000 0440 
0000060: 4101 0f05 4100 41e4 006b 0f0b 4100 0f0b 
