0000000: 0061 736d                                 ; WASM_BINARY_MAGIC
0000004: 0100 0000                                 ; WASM_BINARY_VERSION
; section "Type" (1)
0000008: 01                                        ; section code
0000009: 00                                        ; section size (guess)
000000a: 01                                        ; num types
; type 0
000000b: 60                                        ; func
000000c: 01                                        ; num params
000000d: 7f                                        ; i32
000000e: 01                                        ; num results
000000f: 7e                                        ; i64
0000009: 06                                        ; FIXUP section size
; section "Import" (2)
0000010: 02                                        ; section code
0000011: 00                                        ; section size (guess)
0000012: 01                                        ; num imports
; import header 0
0000013: 03                                        ; string length
0000014: 656e 76                                  env  ; import module name
0000017: 0a                                        ; string length
0000018: 6279 7465 6368 756e 6b73                 bytechunks  ; import field name
0000022: 02                                        ; import kind
0000023: 00                                        ; limits: flags
0000024: 01                                        ; limits: initial
0000011: 13                                        ; FIXUP section size
; section "Function" (3)
0000025: 03                                        ; section code
0000026: 00                                        ; section size (guess)
0000027: 01                                        ; num functions
0000028: 00                                        ; function 0 signature index
0000026: 02                                        ; FIXUP section size
; section "Export" (7)
0000029: 07                                        ; section code
000002a: 00                                        ; section size (guess)
000002b: 01                                        ; num exports
000002c: 04                                        ; string length
000002d: 4164 6431                                Add1  ; export name
0000031: 00                                        ; export kind
0000032: 00                                        ; export func index
000002a: 08                                        ; FIXUP section size
; section "Code" (10)
0000033: 0a                                        ; section code
0000034: 00                                        ; section size (guess)
0000035: 01                                        ; num functions
; function body 0
0000036: 00                                        ; func body size (guess)
0000037: 02                                        ; local decl count
0000038: 01                                        ; local type count
0000039: 7f                                        ; i32
000003a: 01                                        ; local type count
000003b: 7e                                        ; i64
000003c: 20                                        ; local.get
000003d: 00                                        ; local index
000003e: 41                                        ; i32.const
000003f: 01                                        ; i32 literal
0000040: 6a                                        ; i32.add
0000041: 21                                        ; local.set
0000042: 01                                        ; local index
0000043: 20                                        ; local.get
0000044: 01                                        ; local index
0000045: ac                                        ; i64.extend_i32_s
0000046: 21                                        ; local.set
0000047: 02                                        ; local index
0000048: 20                                        ; local.get
0000049: 02                                        ; local index
000004a: 0f                                        ; return
000004b: 0b                                        ; end
0000036: 15                                        ; FIXUP func body size
0000034: 17                                        ; FIXUP section size
;; dump
0000000: 0061 736d 0100 0000 0106 0160 017f 017e 
0000010: 0213 0103 656e 760a 6279 7465 6368 756e 
0000020: 6b73 0200 0103 0201 0007 0801 0441 6464 
0000030: 3100 000a 1701 1502 017f 017e 2000 4101 
0000040: 6a21 0120 01ac 2102 2002 0f0b           
