0000000: 0061 736d                                 ; WASM_BINARY_MAGIC
0000004: 0100 0000                                 ; WASM_BINARY_VERSION
; section "Type" (1)
0000008: 01                                        ; section code
0000009: 00                                        ; section size (guess)
000000a: 02                                        ; num types
; type 0
000000b: 60                                        ; func
000000c: 00                                        ; num params
000000d: 01                                        ; num results
000000e: 7f                                        ; i32
; type 1
000000f: 60                                        ; func
0000010: 01                                        ; num params
0000011: 7f                                        ; i32
0000012: 01                                        ; num results
0000013: 7e                                        ; i64
0000009: 0a                                        ; FIXUP section size
; section "Import" (2)
0000014: 02                                        ; section code
0000015: 00                                        ; section size (guess)
0000016: 01                                        ; num imports
; import header 0
0000017: 03                                        ; string length
0000018: 656e 76                                  env  ; import module name
000001b: 0a                                        ; string length
000001c: 6279 7465 6368 756e 6b73                 bytechunks  ; import field name
0000026: 02                                        ; import kind
0000027: 00                                        ; limits: flags
0000028: 01                                        ; limits: initial
0000015: 13                                        ; FIXUP section size
; section "Function" (3)
0000029: 03                                        ; section code
000002a: 00                                        ; section size (guess)
000002b: 02                                        ; num functions
000002c: 00                                        ; function 0 signature index
000002d: 01                                        ; function 1 signature index
000002a: 03                                        ; FIXUP section size
; section "Export" (7)
000002e: 07                                        ; section code
000002f: 00                                        ; section size (guess)
0000030: 02                                        ; num exports
0000031: 05                                        ; string length
0000032: 446f 4164 64                             DoAdd  ; export name
0000037: 00                                        ; export kind
0000038: 00                                        ; export func index
0000039: 04                                        ; string length
000003a: 4164 6431                                Add1  ; export name
000003e: 00                                        ; export kind
000003f: 01                                        ; export func index
000002f: 10                                        ; FIXUP section size
; section "Code" (10)
0000040: 0a                                        ; section code
0000041: 00                                        ; section size (guess)
0000042: 02                                        ; num functions
; function body 0
0000043: 00                                        ; func body size (guess)
0000044: 00                                        ; local decl count
0000045: 41                                        ; i32.const
0000046: 03                                        ; i32 literal
0000047: ac                                        ; i64.extend_i32_s
0000048: 42                                        ; i64.const
0000049: 04                                        ; i64 literal
000004a: 7c                                        ; i64.add
000004b: 41                                        ; i32.const
000004c: e707                                      ; i32 literal
000004e: ac                                        ; i64.extend_i32_s
000004f: 7c                                        ; i64.add
0000050: a7                                        ; i32.wrap_i64
0000051: 10                                        ; call
0000052: 01                                        ; function index
0000053: a7                                        ; i32.wrap_i64
0000054: 0f                                        ; return
0000055: 0b                                        ; end
0000043: 12                                        ; FIXUP func body size
; function body 1
0000056: 00                                        ; func body size (guess)
0000057: 02                                        ; local decl count
0000058: 01                                        ; local type count
0000059: 7f                                        ; i32
000005a: 01                                        ; local type count
000005b: 7e                                        ; i64
000005c: 20                                        ; local.get
000005d: 00                                        ; local index
000005e: 41                                        ; i32.const
000005f: 01                                        ; i32 literal
0000060: 6a                                        ; i32.add
0000061: 21                                        ; local.set
0000062: 01                                        ; local index
0000063: 20                                        ; local.get
0000064: 01                                        ; local index
0000065: ac                                        ; i64.extend_i32_s
0000066: 21                                        ; local.set
0000067: 02                                        ; local index
0000068: 20                                        ; local.get
0000069: 02                                        ; local index
000006a: 0f                                        ; return
000006b: 0b                                        ; end
0000056: 15                                        ; FIXUP func body size
0000041: 2a                                        ; FIXUP section size
;; dump
0000000: 0061 736d 0100 0000 010a 0260 0001 7f60 
0000010: 017f 017e 0213 0103 656e 760a 6279 7465 
0000020: 6368 756e 6b73 0200 0103 0302 0001 0710 
0000030: 0205 446f 4164 6400 0004 4164 6431 0001 
0000040: 0a2a 0212 0041 03ac 4204 7c41 e707 ac7c 
0000050: a710 01a7 0f0b 1502 017f 017e 2000 4101 
0000060: 6a21 0120 01ac 2102 2002 0f0b           
