0000000: 0061 736d                                 ; WASM_BINARY_MAGIC
0000004: 0100 0000                                 ; WASM_BINARY_VERSION
; section "Type" (1)
0000008: 01                                        ; section code
0000009: 00                                        ; section size (guess)
000000a: 01                                        ; num types
; type 0
000000b: 60                                        ; func
000000c: 00                                        ; num params
000000d: 01                                        ; num results
000000e: 7c                                        ; f64
0000009: 05                                        ; FIXUP section size
; section "Function" (3)
000000f: 03                                        ; section code
0000010: 00                                        ; section size (guess)
0000011: 01                                        ; num functions
0000012: 00                                        ; function 0 signature index
0000010: 02                                        ; FIXUP section size
; section "Export" (7)
0000013: 07                                        ; section code
0000014: 00                                        ; section size (guess)
0000015: 01                                        ; num exports
0000016: 07                                        ; string length
0000017: 666f 726c 6f6f 70                        forloop  ; export name
000001e: 00                                        ; export kind
000001f: 00                                        ; export func index
0000014: 0b                                        ; FIXUP section size
; section "Code" (10)
0000020: 0a                                        ; section code
0000021: 00                                        ; section size (guess)
0000022: 01                                        ; num functions
; function body 0
0000023: 00                                        ; func body size (guess)
0000024: 02                                        ; local decl count
0000025: 01                                        ; local type count
0000026: 7c                                        ; f64
0000027: 01                                        ; local type count
0000028: 7f                                        ; i32
0000029: 41                                        ; i32.const
000002a: e707                                      ; i32 literal
000002c: b7                                        ; f64.convert_i32_s
000002d: 21                                        ; local.set
000002e: 00                                        ; local index
000002f: 41                                        ; i32.const
0000030: 00                                        ; i32 literal
0000031: 21                                        ; local.set
0000032: 01                                        ; local index
0000033: 02                                        ; block
0000034: 40                                        ; void
0000035: 03                                        ; loop
0000036: 40                                        ; void
0000037: 20                                        ; local.get
0000038: 01                                        ; local index
0000039: 41                                        ; i32.const
000003a: e400                                      ; i32 literal
000003c: 4c                                        ; i32.le_s
000003d: 0d                                        ; br_if
000003e: 01                                        ; break depth
000003f: 20                                        ; local.get
0000040: 01                                        ; local index
0000041: 41                                        ; i32.const
0000042: 02                                        ; i32 literal
0000043: 6a                                        ; i32.add
0000044: 20                                        ; local.get
0000045: 00                                        ; local index
0000046: 44                                        ; f64.const
0000047: 7b14 ae47 e17a 843f                       ; f64 literal
000004f: a0                                        ; f64.add
0000050: 21                                        ; local.set
0000051: 00                                        ; local index
0000052: 0c                                        ; br
0000053: 00                                        ; break depth
0000054: 0b                                        ; end
0000055: 0b                                        ; end
0000056: 20                                        ; local.get
0000057: 00                                        ; local index
0000058: 0f                                        ; return
0000059: 0b                                        ; end
0000023: 36                                        ; FIXUP func body size
0000021: 38                                        ; FIXUP section size
;; dump
0000000: 0061 736d 0100 0000 0105 0160 0001 7c03 
0000010: 0201 0007 0b01 0766 6f72 6c6f 6f70 0000 
0000020: 0a38 0136 0201 7c01 7f41 e707 b721 0041 
0000030: 0021 0102 4003 4020 0141 e400 4c0d 0120 
0000040: 0141 026a 2000 447b 14ae 47e1 7a84 3fa0 
0000050: 2100 0c00 0b0b 2000 0f0b                
