0000000: 0061 736d                                 ; WASM_BINARY_MAGIC
0000004: 0100 0000                                 ; WASM_BINARY_VERSION
; section "Type" (1)
0000008: 01                                        ; section code
0000009: 00                                        ; section size (guess)
000000a: 03                                        ; num types
; type 0
000000b: 60                                        ; func
000000c: 01                                        ; num params
000000d: 7f                                        ; i32
000000e: 01                                        ; num results
000000f: 7f                                        ; i32
; type 1
0000010: 60                                        ; func
0000011: 00                                        ; num params
0000012: 01                                        ; num results
0000013: 7f                                        ; i32
; type 2
0000014: 60                                        ; func
0000015: 02                                        ; num params
0000016: 7f                                        ; i32
0000017: 7f                                        ; i32
0000018: 01                                        ; num results
0000019: 7f                                        ; i32
0000009: 10                                        ; FIXUP section size
; section "Import" (2)
000001a: 02                                        ; section code
000001b: 00                                        ; section size (guess)
000001c: 02                                        ; num imports
; import header 0
000001d: 07                                        ; string length
000001e: 636f 6e73 6f6c 65                        console  ; import module name
0000025: 03                                        ; string length
0000026: 6c6f 67                                  log  ; import field name
0000029: 00                                        ; import kind
000002a: 00                                        ; import signature index
; import header 1
000002b: 03                                        ; string length
000002c: 656e 76                                  env  ; import module name
000002f: 0a                                        ; string length
0000030: 6279 7465 6368 756e 6b73                 bytechunks  ; import field name
000003a: 02                                        ; import kind
000003b: 00                                        ; limits: flags
000003c: 01                                        ; limits: initial
000001b: 21                                        ; FIXUP section size
; section "Function" (3)
000003d: 03                                        ; section code
000003e: 00                                        ; section size (guess)
000003f: 03                                        ; num functions
0000040: 01                                        ; function 0 signature index
0000041: 01                                        ; function 1 signature index
0000042: 02                                        ; function 2 signature index
000003e: 04                                        ; FIXUP section size
; section "Export" (7)
0000043: 07                                        ; section code
0000044: 00                                        ; section size (guess)
0000045: 03                                        ; num exports
0000046: 15                                        ; string length
0000047: 6578 7465 6e73 696f 6e46 756e 6374 696f  extensionFunctio
0000057: 6e74 6573 74                             ntest  ; export name
000005c: 00                                        ; export kind
000005d: 01                                        ; export func index
000005e: 05                                        ; string length
000005f: 6361 6c6c 73                             calls  ; export name
0000064: 00                                        ; export kind
0000065: 02                                        ; export func index
0000066: 04                                        ; string length
0000067: 4d61 696e                                Main  ; export name
000006b: 00                                        ; export kind
000006c: 03                                        ; export func index
0000044: 28                                        ; FIXUP section size
; section "Code" (10)
000006d: 0a                                        ; section code
000006e: 00                                        ; section size (guess)
000006f: 03                                        ; num functions
; function body 0
0000070: 00                                        ; func body size (guess)
0000071: 00                                        ; local decl count
0000072: 41                                        ; i32.const
0000073: 01                                        ; i32 literal
0000074: 10                                        ; call
0000075: 00                                        ; function index
0000076: 41                                        ; i32.const
0000077: 00                                        ; i32 literal
0000078: 0f                                        ; return
0000079: 0b                                        ; end
0000070: 09                                        ; FIXUP func body size
; function body 1
000007a: 00                                        ; func body size (guess)
000007b: 00                                        ; local decl count
000007c: 41                                        ; i32.const
000007d: 02                                        ; i32 literal
000007e: 41                                        ; i32.const
000007f: bf84 3d                                   ; i32 literal
0000082: 10                                        ; call
0000083: 03                                        ; function index
0000084: 41                                        ; i32.const
0000085: 17                                        ; i32 literal
0000086: 41                                        ; i32.const
0000087: 9c7f                                      ; i32 literal
0000089: 10                                        ; call
000008a: 03                                        ; function index
000008b: 41                                        ; i32.const
000008c: 00                                        ; i32 literal
000008d: 0f                                        ; return
000008e: 0b                                        ; end
000007a: 14                                        ; FIXUP func body size
; function body 2
000008f: 00                                        ; func body size (guess)
0000090: 00                                        ; local decl count
0000091: 20                                        ; local.get
0000092: 00                                        ; local index
0000093: 10                                        ; call
0000094: 00                                        ; function index
0000095: 20                                        ; local.get
0000096: 01                                        ; local index
0000097: 10                                        ; call
0000098: 00                                        ; function index
0000099: 41                                        ; i32.const
000009a: 00                                        ; i32 literal
000009b: 0f                                        ; return
000009c: 0b                                        ; end
000008f: 0d                                        ; FIXUP func body size
000006e: 2e                                        ; FIXUP section size
; section "Data" (11)
000009d: 0b                                        ; section code
000009e: 00                                        ; section size (guess)
000009f: 03                                        ; num data segments
; data segment header 0
00000a0: 00                                      
00000a1: 41                                        ; i32.const
00000a2: 01                                        ; i32 literal
00000a3: 0b                                        ; end
00000a4: 01                                        ; data segment size
; data segment data 0
00000a5: 00                                        ; data segment data
; data segment header 1
00000a6: 00                                      
00000a7: 41                                        ; i32.const
00000a8: 02                                        ; i32 literal
00000a9: 0b                                        ; end
00000aa: 15                                        ; data segment size
; data segment data 1
00000ab: 416e 6f74 6865 7220 7374 7269 6e67 2076 
00000bb: 616c 7565 00                              ; data segment data
; data segment header 2
00000c0: 00                                      
00000c1: 41                                        ; i32.const
00000c2: 17                                        ; i32 literal
00000c3: 0b                                        ; end
00000c4: 25                                        ; data segment size
; data segment data 2
00000c5: 5468 6973 2069 7320 7468 6520 6f70 7469 
00000d5: 6f6e 616c 2070 6172 616d 6574 6572 2076 
00000e5: 616c 7565 00                              ; data segment data
000009e: 4b                                        ; FIXUP section size
;; dump
0000000: 0061 736d 0100 0000 0110 0360 017f 017f 
0000010: 6000 017f 6002 7f7f 017f 0221 0207 636f 
0000020: 6e73 6f6c 6503 6c6f 6700 0003 656e 760a 
0000030: 6279 7465 6368 756e 6b73 0200 0103 0403 
0000040: 0101 0207 2803 1565 7874 656e 7369 6f6e 
0000050: 4675 6e63 7469 6f6e 7465 7374 0001 0563 
0000060: 616c 6c73 0002 044d 6169 6e00 030a 2e03 
0000070: 0900 4101 1000 4100 0f0b 1400 4102 41bf 
0000080: 843d 1003 4117 419c 7f10 0341 000f 0b0d 
0000090: 0020 0010 0020 0110 0041 000f 0b0b 4b03 
00000a0: 0041 010b 0100 0041 020b 1541 6e6f 7468 
00000b0: 6572 2073 7472 696e 6720 7661 6c75 6500 
00000c0: 0041 170b 2554 6869 7320 6973 2074 6865 
00000d0: 206f 7074 696f 6e61 6c20 7061 7261 6d65 
00000e0: 7465 7220 7661 6c75 6500                
