0000000: 0061 736d                                 ; WASM_BINARY_MAGIC
0000004: 0100 0000                                 ; WASM_BINARY_VERSION
; section "Type" (1)
0000008: 01                                        ; section code
0000009: 00                                        ; section size (guess)
000000a: 07                                        ; num types
; type 0
000000b: 60                                        ; func
000000c: 01                                        ; num params
000000d: 7f                                        ; i32
000000e: 01                                        ; num results
000000f: 7f                                        ; i32
; type 1
0000010: 60                                        ; func
0000011: 01                                        ; num params
0000012: 7f                                        ; i32
0000013: 00                                        ; num results
; type 2
0000014: 60                                        ; func
0000015: 03                                        ; num params
0000016: 7f                                        ; i32
0000017: 7f                                        ; i32
0000018: 7f                                        ; i32
0000019: 01                                        ; num results
000001a: 7f                                        ; i32
; type 3
000001b: 60                                        ; func
000001c: 02                                        ; num params
000001d: 7f                                        ; i32
000001e: 7f                                        ; i32
000001f: 01                                        ; num results
0000020: 7f                                        ; i32
; type 4
0000021: 60                                        ; func
0000022: 00                                        ; num params
0000023: 00                                        ; num results
; type 5
0000024: 60                                        ; func
0000025: 02                                        ; num params
0000026: 7f                                        ; i32
0000027: 7f                                        ; i32
0000028: 00                                        ; num results
; type 6
0000029: 60                                        ; func
000002a: 00                                        ; num params
000002b: 01                                        ; num results
000002c: 7d                                        ; f32
0000009: 23                                        ; FIXUP section size
; section "Import" (2)
000002d: 02                                        ; section code
000002e: 00                                        ; section size (guess)
000002f: 07                                        ; num imports
; import header 0
0000030: 07                                        ; string length
0000031: 636f 6e73 6f6c 65                        console  ; import module name
0000038: 03                                        ; string length
0000039: 6c6f 67                                  log  ; import field name
000003c: 00                                        ; import kind
000003d: 00                                        ; import signature index
; import header 1
000003e: 07                                        ; string length
000003f: 636f 6e73 6f6c 65                        console  ; import module name
0000046: 05                                        ; string length
0000047: 6572 726f 72                             error  ; import field name
000004c: 00                                        ; import kind
000004d: 01                                        ; import signature index
; import header 2
000004e: 06                                        ; string length
000004f: 7374 7269 6e67                           string  ; import module name
0000055: 07                                        ; string length
0000056: 7265 706c 6163 65                        replace  ; import field name
000005d: 00                                        ; import kind
000005e: 02                                        ; import signature index
; import header 3
000005f: 06                                        ; string length
0000060: 7374 7269 6e67                           string  ; import module name
0000066: 03                                        ; string length
0000067: 6164 64                                  add  ; import field name
000006a: 00                                        ; import kind
000006b: 03                                        ; import signature index
; import header 4
000006c: 06                                        ; string length
000006d: 7374 7269 6e67                           string  ; import module name
0000073: 06                                        ; string length
0000074: 6c65 6e67 7468                           length  ; import field name
000007a: 00                                        ; import kind
000007b: 00                                        ; import signature index
; import header 5
000007c: 06                                        ; string length
000007d: 7374 7269 6e67                           string  ; import module name
0000083: 00                                        ; string length
0000084: 00                                        ; import kind
0000085: 03                                        ; import signature index
; import header 6
0000086: 03                                        ; string length
0000087: 656e 76                                  env  ; import module name
000008a: 0a                                        ; string length
000008b: 6279 7465 6368 756e 6b73                 bytechunks  ; import field name
0000095: 02                                        ; import kind
0000096: 00                                        ; limits: flags
0000097: 01                                        ; limits: initial
000002e: 69                                        ; FIXUP section size
; section "Function" (3)
0000098: 03                                        ; section code
0000099: 00                                        ; section size (guess)
000009a: 04                                        ; num functions
000009b: 04                                        ; function 0 signature index
000009c: 04                                        ; function 1 signature index
000009d: 05                                        ; function 2 signature index
000009e: 06                                        ; function 3 signature index
0000099: 05                                        ; FIXUP section size
; section "Export" (7)
000009f: 07                                        ; section code
00000a0: 00                                        ; section size (guess)
00000a1: 04                                        ; num exports
00000a2: 15                                        ; string length
00000a3: 6578 7465 6e73 696f 6e46 756e 6374 696f  extensionFunctio
00000b3: 6e74 6573 74                             ntest  ; export name
00000b8: 00                                        ; export kind
00000b9: 06                                        ; export func index
00000ba: 05                                        ; string length
00000bb: 6361 6c6c 73                             calls  ; export name
00000c0: 00                                        ; export kind
00000c1: 07                                        ; export func index
00000c2: 04                                        ; string length
00000c3: 4d61 696e                                Main  ; export name
00000c7: 00                                        ; export kind
00000c8: 08                                        ; export func index
00000c9: 0b                                        ; string length
00000ca: 6f75 7470 7574 4572 726f 72              outputError  ; export name
00000d5: 00                                        ; export kind
00000d6: 09                                        ; export func index
00000a0: 36                                        ; FIXUP section size
; section "Code" (10)
00000d7: 0a                                        ; section code
00000d8: 00                                        ; section size (guess)
00000d9: 04                                        ; num functions
; function body 0
00000da: 00                                        ; func body size (guess)
00000db: 00                                        ; local decl count
00000dc: 41                                        ; i32.const
00000dd: 01                                        ; i32 literal
00000de: 10                                        ; call
00000df: 00                                        ; function index
00000e0: 1a                                        ; drop
00000e1: 0b                                        ; end
00000da: 07                                        ; FIXUP func body size
; function body 1
00000e2: 00                                        ; func body size (guess)
00000e3: 00                                        ; local decl count
00000e4: 41                                        ; i32.const
00000e5: 0e                                        ; i32 literal
00000e6: 41                                        ; i32.const
00000e7: bf84 3d                                   ; i32 literal
00000ea: 10                                        ; call
00000eb: 08                                        ; function index
00000ec: 41                                        ; i32.const
00000ed: 23                                        ; i32 literal
00000ee: 41                                        ; i32.const
00000ef: 9c7f                                      ; i32 literal
00000f1: 10                                        ; call
00000f2: 08                                        ; function index
00000f3: 10                                        ; call
00000f4: 09                                        ; function index
00000f5: 1a                                        ; drop
00000f6: 0b                                        ; end
00000e2: 14                                        ; FIXUP func body size
; function body 2
00000f7: 00                                        ; func body size (guess)
00000f8: 00                                        ; local decl count
00000f9: 20                                        ; local.get
00000fa: 00                                        ; local index
00000fb: 10                                        ; call
00000fc: 00                                        ; function index
00000fd: 1a                                        ; drop
00000fe: 20                                        ; local.get
00000ff: 01                                        ; local index
0000100: 10                                        ; call
0000101: 00                                        ; function index
0000102: 1a                                        ; drop
0000103: 0b                                        ; end
00000f7: 0c                                        ; FIXUP func body size
; function body 3
0000104: 00                                        ; func body size (guess)
0000105: 00                                        ; local decl count
0000106: 41                                        ; i32.const
0000107: c800                                      ; i32 literal
0000109: 10                                        ; call
000010a: 01                                        ; function index
000010b: 44                                        ; f64.const
000010c: 0000 0000 0000 0000                       ; f64 literal
0000114: 44                                        ; f64.const
0000115: 2d43 1ceb e236 1a3f                       ; f64 literal
000011d: a1                                        ; f64.sub
000011e: b6                                        ; f32.demote_f64
000011f: 0f                                        ; return
0000120: 0b                                        ; end
0000104: 1c                                        ; FIXUP func body size
00000d8: 48                                        ; FIXUP section size
; section "Data" (11)
0000121: 0b                                        ; section code
0000122: 00                                        ; section size (guess)
0000123: 04                                        ; num data segments
; data segment header 0
0000124: 00                                      
0000125: 41                                        ; i32.const
0000126: 01                                        ; i32 literal
0000127: 0b                                        ; end
0000128: 0d                                        ; data segment size
; data segment data 0
0000129: 3334 3535 3636 3737 3737 3737 00          ; data segment data
; data segment header 1
0000136: 00                                      
0000137: 41                                        ; i32.const
0000138: 0e                                        ; i32 literal
0000139: 0b                                        ; end
000013a: 15                                        ; data segment size
; data segment data 1
000013b: 416e 6f74 6865 7220 7374 7269 6e67 2076 
000014b: 616c 7565 00                              ; data segment data
; data segment header 2
0000150: 00                                      
0000151: 41                                        ; i32.const
0000152: 23                                        ; i32 literal
0000153: 0b                                        ; end
0000154: 25                                        ; data segment size
; data segment data 2
0000155: 5468 6973 2069 7320 7468 6520 6f70 7469 
0000165: 6f6e 616c 2070 6172 616d 6574 6572 2076 
0000175: 616c 7565 00                              ; data segment data
; data segment header 3
000017a: 00                                      
000017b: 41                                        ; i32.const
000017c: c800                                      ; i32 literal
000017e: 0b                                        ; end
000017f: 10                                        ; data segment size
; data segment data 3
0000180: 7468 6973 2069 7320 6d65 7373 6167 6500   ; data segment data
0000122: 6d                                        ; FIXUP section size
;; dump
0000000: 0061 736d 0100 0000 0123 0760 017f 017f 
0000010: 6001 7f00 6003 7f7f 7f01 7f60 027f 7f01 
0000020: 7f60 0000 6002 7f7f 0060 0001 7d02 6907 
0000030: 0763 6f6e 736f 6c65 036c 6f67 0000 0763 
0000040: 6f6e 736f 6c65 0565 7272 6f72 0001 0673 
0000050: 7472 696e 6707 7265 706c 6163 6500 0206 
0000060: 7374 7269 6e67 0361 6464 0003 0673 7472 
0000070: 696e 6706 6c65 6e67 7468 0000 0673 7472 
0000080: 696e 6700 0003 0365 6e76 0a62 7974 6563 
0000090: 6875 6e6b 7302 0001 0305 0404 0405 0607 
00000a0: 3604 1565 7874 656e 7369 6f6e 4675 6e63 
00000b0: 7469 6f6e 7465 7374 0006 0563 616c 6c73 
00000c0: 0007 044d 6169 6e00 080b 6f75 7470 7574 
00000d0: 4572 726f 7200 090a 4804 0700 4101 1000 
00000e0: 1a0b 1400 410e 41bf 843d 1008 4123 419c 
00000f0: 7f10 0810 091a 0b0c 0020 0010 001a 2001 
0000100: 1000 1a0b 1c00 41c8 0010 0144 0000 0000 
0000110: 0000 0000 442d 431c ebe2 361a 3fa1 b60f 
0000120: 0b0b 6d04 0041 010b 0d33 3435 3536 3637 
0000130: 3737 3737 3700 0041 0e0b 1541 6e6f 7468 
0000140: 6572 2073 7472 696e 6720 7661 6c75 6500 
0000150: 0041 230b 2554 6869 7320 6973 2074 6865 
0000160: 206f 7074 696f 6e61 6c20 7061 7261 6d65 
0000170: 7465 7220 7661 6c75 6500 0041 c800 0b10 
0000180: 7468 6973 2069 7320 6d65 7373 6167 6500 
