0000000: 0061 736d                                 ; WASM_BINARY_MAGIC
0000004: 0100 0000                                 ; WASM_BINARY_VERSION
; section "Type" (1)
0000008: 01                                        ; section code
0000009: 00                                        ; section size (guess)
000000a: 03                                        ; num types
; type 0
000000b: 60                                        ; func
000000c: 01                                        ; num params
000000d: 7f                                        ; i32
000000e: 01                                        ; num results
000000f: 7f                                        ; i32
; type 1
0000010: 60                                        ; func
0000011: 00                                        ; num params
0000012: 01                                        ; num results
0000013: 7f                                        ; i32
; type 2
0000014: 60                                        ; func
0000015: 02                                        ; num params
0000016: 7f                                        ; i32
0000017: 7f                                        ; i32
0000018: 01                                        ; num results
0000019: 7f                                        ; i32
0000009: 10                                        ; FIXUP section size
; section "Import" (2)
000001a: 02                                        ; section code
000001b: 00                                        ; section size (guess)
000001c: 02                                        ; num imports
; import header 0
000001d: 07                                        ; string length
000001e: 636f 6e73 6f6c 65                        console  ; import module name
0000025: 03                                        ; string length
0000026: 6c6f 67                                  log  ; import field name
0000029: 00                                        ; import kind
000002a: 00                                        ; import signature index
; import header 1
000002b: 03                                        ; string length
000002c: 656e 76                                  env  ; import module name
000002f: 0a                                        ; string length
0000030: 6279 7465 6368 756e 6b73                 bytechunks  ; import field name
000003a: 02                                        ; import kind
000003b: 00                                        ; limits: flags
000003c: 01                                        ; limits: initial
000001b: 21                                        ; FIXUP section size
; section "Function" (3)
000003d: 03                                        ; section code
000003e: 00                                        ; section size (guess)
000003f: 02                                        ; num functions
0000040: 01                                        ; function 0 signature index
0000041: 02                                        ; function 1 signature index
000003e: 03                                        ; FIXUP section size
; section "Export" (7)
0000042: 07                                        ; section code
0000043: 00                                        ; section size (guess)
0000044: 02                                        ; num exports
0000045: 05                                        ; string length
0000046: 6361 6c6c 73                             calls  ; export name
000004b: 00                                        ; export kind
000004c: 01                                        ; export func index
000004d: 04                                        ; string length
000004e: 4d61 696e                                Main  ; export name
0000052: 00                                        ; export kind
0000053: 02                                        ; export func index
0000043: 10                                        ; FIXUP section size
; section "Code" (10)
0000054: 0a                                        ; section code
0000055: 00                                        ; section size (guess)
0000056: 02                                        ; num functions
; function body 0
0000057: 00                                        ; func body size (guess)
0000058: 00                                        ; local decl count
0000059: 41                                        ; i32.const
000005a: 01                                        ; i32 literal
000005b: 41                                        ; i32.const
000005c: bf84 3d                                   ; i32 literal
000005f: 10                                        ; call
0000060: 02                                        ; function index
0000061: 41                                        ; i32.const
0000062: 16                                        ; i32 literal
0000063: 41                                        ; i32.const
0000064: 9c7f                                      ; i32 literal
0000066: 10                                        ; call
0000067: 02                                        ; function index
0000068: 41                                        ; i32.const
0000069: 00                                        ; i32 literal
000006a: 0f                                        ; return
000006b: 0b                                        ; end
0000057: 14                                        ; FIXUP func body size
; function body 1
000006c: 00                                        ; func body size (guess)
000006d: 00                                        ; local decl count
000006e: 20                                        ; local.get
000006f: 00                                        ; local index
0000070: 10                                        ; call
0000071: 00                                        ; function index
0000072: 20                                        ; local.get
0000073: 01                                        ; local index
0000074: 10                                        ; call
0000075: 00                                        ; function index
0000076: 41                                        ; i32.const
0000077: 00                                        ; i32 literal
0000078: 0f                                        ; return
0000079: 0b                                        ; end
000006c: 0d                                        ; FIXUP func body size
0000055: 24                                        ; FIXUP section size
; section "Data" (11)
000007a: 0b                                        ; section code
000007b: 00                                        ; section size (guess)
000007c: 02                                        ; num data segments
; data segment header 0
000007d: 00                                      
000007e: 41                                        ; i32.const
000007f: 01                                        ; i32 literal
0000080: 0b                                        ; end
0000081: 15                                        ; data segment size
; data segment data 0
0000082: 416e 6f74 6865 7220 7374 7269 6e67 2076 
0000092: 616c 7565 00                              ; data segment data
; data segment header 1
0000097: 00                                      
0000098: 41                                        ; i32.const
0000099: 16                                        ; i32 literal
000009a: 0b                                        ; end
000009b: 25                                        ; data segment size
; data segment data 1
000009c: 5468 6973 2069 7320 7468 6520 6f70 7469 
00000ac: 6f6e 616c 2070 6172 616d 6574 6572 2076 
00000bc: 616c 7565 00                              ; data segment data
000007b: 45                                        ; FIXUP section size
;; dump
0000000: 0061 736d 0100 0000 0110 0360 017f 017f 
0000010: 6000 017f 6002 7f7f 017f 0221 0207 636f 
0000020: 6e73 6f6c 6503 6c6f 6700 0003 656e 760a 
0000030: 6279 7465 6368 756e 6b73 0200 0103 0302 
0000040: 0102 0710 0205 6361 6c6c 7300 0104 4d61 
0000050: 696e 0002 0a24 0214 0041 0141 bf84 3d10 
0000060: 0241 1641 9c7f 1002 4100 0f0b 0d00 2000 
0000070: 1000 2001 1000 4100 0f0b 0b45 0200 4101 
0000080: 0b15 416e 6f74 6865 7220 7374 7269 6e67 
0000090: 2076 616c 7565 0000 4116 0b25 5468 6973 
00000a0: 2069 7320 7468 6520 6f70 7469 6f6e 616c 
00000b0: 2070 6172 616d 6574 6572 2076 616c 7565 
00000c0: 00                                      
