0000000: 0061 736d                                 ; WASM_BINARY_MAGIC
0000004: 0100 0000                                 ; WASM_BINARY_VERSION
; section "Type" (1)
0000008: 01                                        ; section code
0000009: 00                                        ; section size (guess)
000000a: 02                                        ; num types
; type 0
000000b: 60                                        ; func
000000c: 00                                        ; num params
000000d: 01                                        ; num results
000000e: 7c                                        ; f64
; type 1
000000f: 60                                        ; func
0000010: 01                                        ; num params
0000011: 7f                                        ; i32
0000012: 01                                        ; num results
0000013: 7f                                        ; i32
0000009: 0a                                        ; FIXUP section size
; section "Import" (2)
0000014: 02                                        ; section code
0000015: 00                                        ; section size (guess)
0000016: 01                                        ; num imports
; import header 0
0000017: 03                                        ; string length
0000018: 656e 76                                  env  ; import module name
000001b: 0a                                        ; string length
000001c: 6279 7465 6368 756e 6b73                 bytechunks  ; import field name
0000026: 02                                        ; import kind
0000027: 00                                        ; limits: flags
0000028: 01                                        ; limits: initial
0000015: 13                                        ; FIXUP section size
; section "Function" (3)
0000029: 03                                        ; section code
000002a: 00                                        ; section size (guess)
000002b: 02                                        ; num functions
000002c: 00                                        ; function 0 signature index
000002d: 01                                        ; function 1 signature index
000002a: 03                                        ; FIXUP section size
; section "Export" (7)
000002e: 07                                        ; section code
000002f: 00                                        ; section size (guess)
0000030: 02                                        ; num exports
0000031: 06                                        ; string length
0000032: 7275 6e41 6464                           runAdd  ; export name
0000038: 00                                        ; export kind
0000039: 00                                        ; export func index
000003a: 04                                        ; string length
000003b: 7368 6f77                                show  ; export name
000003f: 00                                        ; export kind
0000040: 01                                        ; export func index
000002f: 11                                        ; FIXUP section size
; section "Code" (10)
0000041: 0a                                        ; section code
0000042: 00                                        ; section size (guess)
0000043: 02                                        ; num functions
; function body 0
0000044: 00                                        ; func body size (guess)
0000045: 01                                        ; local decl count
0000046: 02                                        ; local type count
0000047: 7f                                        ; i32
0000048: 41                                        ; i32.const
0000049: e707                                      ; i32 literal
000004b: 21                                        ; local.set
000004c: 00                                        ; local index
000004d: 41                                        ; i32.const
000004e: 00                                        ; i32 literal
000004f: 41                                        ; i32.const
0000050: 00                                        ; i32 literal
0000051: 20                                        ; local.get
0000052: 00                                        ; local index
0000053: 6a                                        ; i32.add
0000054: 6a                                        ; i32.add
0000055: 10                                        ; call
0000056: 01                                        ; function index
0000057: 41                                        ; i32.const
0000058: 00                                        ; i32 literal
0000059: 41                                        ; i32.const
000005a: 00                                        ; i32 literal
000005b: 20                                        ; local.get
000005c: 00                                        ; local index
000005d: 6a                                        ; i32.add
000005e: 6a                                        ; i32.add
000005f: 21                                        ; local.set
0000060: 01                                        ; local index
0000061: 20                                        ; local.get
0000062: 00                                        ; local index
0000063: b7                                        ; f64.convert_i32_s
0000064: 0f                                        ; return
0000065: 0b                                        ; end
0000044: 21                                        ; FIXUP func body size
; function body 1
0000066: 00                                        ; func body size (guess)
0000067: 00                                        ; local decl count
0000068: 41                                        ; i32.const
0000069: 00                                        ; i32 literal
000006a: 0f                                        ; return
000006b: 0b                                        ; end
0000066: 05                                        ; FIXUP func body size
0000042: 29                                        ; FIXUP section size
;; dump
0000000: 0061 736d 0100 0000 010a 0260 0001 7c60 
0000010: 017f 017f 0213 0103 656e 760a 6279 7465 
0000020: 6368 756e 6b73 0200 0103 0302 0001 0711 
0000030: 0206 7275 6e41 6464 0000 0473 686f 7700 
0000040: 010a 2902 2101 027f 41e7 0721 0041 0041 
0000050: 0020 006a 6a10 0141 0041 0020 006a 6a21 
0000060: 0120 00b7 0f0b 0500 4100 0f0b           
